ARM GAS  C:\Users\Admin\AppData\Local\Temp\cciUVb9z.s 			page 1


   1              		.syntax unified
   2              		.cpu cortex-m3
   3              		.fpu softvfp
   4              		.eabi_attribute 20, 1
   5              		.eabi_attribute 21, 1
   6              		.eabi_attribute 23, 3
   7              		.eabi_attribute 24, 1
   8              		.eabi_attribute 25, 1
   9              		.eabi_attribute 26, 1
  10              		.eabi_attribute 30, 1
  11              		.eabi_attribute 34, 1
  12              		.eabi_attribute 18, 4
  13              		.thumb
  14              		.syntax unified
  15              		.file	"main.c"
  16              		.text
  17              	.Ltext0:
  18              		.cfi_sections	.debug_frame
  19              		.section	.text.main,"ax",%progbits
  20              		.align	2
  21              		.global	main
  22              		.thumb
  23              		.thumb_func
  24              		.type	main, %function
  25              	main:
  26              	.LFB64:
  27              		.file 1 "main.c"
   1:main.c        **** #include <project.h>
   2:main.c        **** #include <stdio.h>
   3:main.c        **** #include <stdbool.h>
   4:main.c        **** 
   5:main.c        **** /* How many alarms do we support? */
   6:main.c        **** #define NUM_ALARMS  3
   7:main.c        **** 
   8:main.c        **** /* Alarm duration (how many 250 ms loops to keep the buzzer/LCD in “ALARM” state) */
   9:main.c        **** #define ALARM_DURATION_ITERATIONS  20
  10:main.c        **** 
  11:main.c        **** /* Alarm definitions: year, month, day, hour, minute, second */
  12:main.c        **** typedef struct {
  13:main.c        ****     uint16_t year;
  14:main.c        ****     uint8_t  month;
  15:main.c        ****     uint8_t  day;
  16:main.c        ****     uint8_t  hour;
  17:main.c        ****     uint8_t  minute;
  18:main.c        ****     uint8_t  second;
  19:main.c        **** } AlarmDef;
  20:main.c        **** 
  21:main.c        **** /* Fill in your alarms here */
  22:main.c        **** static const AlarmDef alarmDefs[NUM_ALARMS] = {
  23:main.c        ****     {2025, 4, 14, 14, 31, 0},  // Alarm #0
  24:main.c        ****     {2025, 4, 14, 14,  32, 0},  // Alarm #1
  25:main.c        ****     {2025, 4, 14, 14, 33, 0},  // Alarm #2
  26:main.c        **** };
  27:main.c        **** 
  28:main.c        **** int main(void)
  29:main.c        **** {
  28              		.loc 1 29 0
ARM GAS  C:\Users\Admin\AppData\Local\Temp\cciUVb9z.s 			page 2


  29              		.cfi_startproc
  30              		@ args = 0, pretend = 0, frame = 64
  31              		@ frame_needed = 0, uses_anonymous_args = 0
  32 0000 2DE9F04F 		push	{r4, r5, r6, r7, r8, r9, r10, fp, lr}
  33              		.cfi_def_cfa_offset 36
  34              		.cfi_offset 4, -36
  35              		.cfi_offset 5, -32
  36              		.cfi_offset 6, -28
  37              		.cfi_offset 7, -24
  38              		.cfi_offset 8, -20
  39              		.cfi_offset 9, -16
  40              		.cfi_offset 10, -12
  41              		.cfi_offset 11, -8
  42              		.cfi_offset 14, -4
  43 0004 93B0     		sub	sp, sp, #76
  44              		.cfi_def_cfa_offset 112
  30:main.c        ****     CyGlobalIntEnable;
  45              		.loc 1 30 0
  46              		.syntax unified
  47              	@ 30 "main.c" 1
  48 0006 62B6     		CPSIE   i
  49              	@ 0 "" 2
  31:main.c        ****     RTC_Start();
  50              		.loc 1 31 0
  51              		.thumb
  52              		.syntax unified
  53 0008 FFF7FEFF 		bl	RTC_Start
  54              	.LVL0:
  32:main.c        ****     LCD_Start();
  55              		.loc 1 32 0
  56 000c FFF7FEFF 		bl	LCD_Start
  57              	.LVL1:
  33:main.c        ****     
  34:main.c        ****     /* Initialize RTC to some known time/date */
  35:main.c        ****     RTC_WriteHour(14);
  58              		.loc 1 35 0
  59 0010 0E20     		movs	r0, #14
  60 0012 FFF7FEFF 		bl	RTC_WriteHour
  61              	.LVL2:
  36:main.c        ****     RTC_WriteMinute(30);
  62              		.loc 1 36 0
  63 0016 1E20     		movs	r0, #30
  64 0018 FFF7FEFF 		bl	RTC_WriteMinute
  65              	.LVL3:
  37:main.c        ****     RTC_WriteSecond(10);
  66              		.loc 1 37 0
  67 001c 0A20     		movs	r0, #10
  68 001e FFF7FEFF 		bl	RTC_WriteSecond
  69              	.LVL4:
  38:main.c        ****     RTC_WriteDayOfMonth(14);
  70              		.loc 1 38 0
  71 0022 0E20     		movs	r0, #14
  72 0024 FFF7FEFF 		bl	RTC_WriteDayOfMonth
  73              	.LVL5:
  39:main.c        ****     RTC_WriteMonth(4);
  74              		.loc 1 39 0
  75 0028 0420     		movs	r0, #4
ARM GAS  C:\Users\Admin\AppData\Local\Temp\cciUVb9z.s 			page 3


  76 002a FFF7FEFF 		bl	RTC_WriteMonth
  77              	.LVL6:
  40:main.c        ****     RTC_WriteYear(2025);
  78              		.loc 1 40 0
  79 002e 40F2E970 		movw	r0, #2025
  80 0032 FFF7FEFF 		bl	RTC_WriteYear
  81              	.LVL7:
  41:main.c        ****     
  42:main.c        ****     /* Per‑alarm state: whether it’s currently active, and its remaining iterations */
  43:main.c        ****     bool  alarmActive[NUM_ALARMS]  = { false };
  82              		.loc 1 43 0
  83 0036 0025     		movs	r5, #0
  84 0038 ADF84450 		strh	r5, [sp, #68]	@ movhi
  85 003c 8DF84650 		strb	r5, [sp, #70]
  44:main.c        ****     int   alarmCounter[NUM_ALARMS] = { 0 };
  86              		.loc 1 44 0
  87 0040 0E95     		str	r5, [sp, #56]
  88 0042 0F95     		str	r5, [sp, #60]
  89 0044 1095     		str	r5, [sp, #64]
  90              	.LVL8:
  45:main.c        ****     
  46:main.c        ****     /* Stopwatch state (unchanged) */
  47:main.c        ****     bool     stopwatchMode    = false;
  48:main.c        ****     bool     stopwatchFrozen  = false;
  49:main.c        ****     bool     startButtonPrev  = false;
  50:main.c        ****     bool     stopButtonPrev   = false;
  51:main.c        ****     uint16_t stopwatchTick    = 0;
  52:main.c        ****     uint32_t stopwatchSeconds = 0;
  91              		.loc 1 52 0
  92 0046 2E46     		mov	r6, r5
  51:main.c        ****     uint32_t stopwatchSeconds = 0;
  93              		.loc 1 51 0
  94 0048 A846     		mov	r8, r5
  50:main.c        ****     uint16_t stopwatchTick    = 0;
  95              		.loc 1 50 0
  96 004a AA46     		mov	r10, r5
  49:main.c        ****     bool     stopButtonPrev   = false;
  97              		.loc 1 49 0
  98 004c AB46     		mov	fp, r5
  48:main.c        ****     bool     startButtonPrev  = false;
  99              		.loc 1 48 0
 100 004e A946     		mov	r9, r5
 101              	.LVL9:
 102              	.L14:
 103              	.LBB2:
  53:main.c        ****     
  54:main.c        ****     for(;;)
  55:main.c        ****     {
  56:main.c        ****         /* --- START/RESET STOPWATCH: Pin (P6_3, active low) --- */
  57:main.c        ****         if (Pin_Read() == 0) {
 104              		.loc 1 57 0
 105 0050 FFF7FEFF 		bl	Pin_Read
 106              	.LVL10:
 107 0054 50B9     		cbnz	r0, .L15
  58:main.c        ****             if (!startButtonPrev) {
 108              		.loc 1 58 0
 109 0056 BBF1000F 		cmp	fp, #0
ARM GAS  C:\Users\Admin\AppData\Local\Temp\cciUVb9z.s 			page 4


 110 005a 0FD1     		bne	.L2
 111              	.LVL11:
  59:main.c        ****                 stopwatchMode   = !stopwatchMode;
  60:main.c        ****                 stopwatchFrozen = false;
  61:main.c        ****                 if (stopwatchMode) {
 112              		.loc 1 61 0
 113 005c 95F00105 		eors	r5, r5, #1
 114              	.LVL12:
 115 0060 07D1     		bne	.L16
  62:main.c        ****                     stopwatchTick    = 0;
  63:main.c        ****                     stopwatchSeconds = 0;
  64:main.c        ****                 }
  65:main.c        ****                 startButtonPrev = true;
 116              		.loc 1 65 0
 117 0062 4FF0010B 		mov	fp, #1
 118              	.LVL13:
  60:main.c        ****                 if (stopwatchMode) {
 119              		.loc 1 60 0
 120 0066 4FF00009 		mov	r9, #0
 121 006a 07E0     		b	.L2
 122              	.LVL14:
 123              	.L15:
  66:main.c        ****             }
  67:main.c        ****         } else {
  68:main.c        ****             startButtonPrev = false;
 124              		.loc 1 68 0
 125 006c 4FF0000B 		mov	fp, #0
 126              	.LVL15:
 127 0070 04E0     		b	.L2
 128              	.LVL16:
 129              	.L16:
  63:main.c        ****                 }
 130              		.loc 1 63 0
 131 0072 0026     		movs	r6, #0
 132              	.LVL17:
  62:main.c        ****                     stopwatchSeconds = 0;
 133              		.loc 1 62 0
 134 0074 B046     		mov	r8, r6
 135              	.LVL18:
  65:main.c        ****             }
 136              		.loc 1 65 0
 137 0076 4FF0010B 		mov	fp, #1
 138              	.LVL19:
  60:main.c        ****                 if (stopwatchMode) {
 139              		.loc 1 60 0
 140 007a B146     		mov	r9, r6
 141              	.LVL20:
 142              	.L2:
  69:main.c        ****         }
  70:main.c        ****         
  71:main.c        ****         /* --- STOP/FREEZE STOPWATCH: Pin2 (P15_5, active low) --- */
  72:main.c        ****         if (Pin2_Read() == 0) {
 143              		.loc 1 72 0
 144 007c FFF7FEFF 		bl	Pin2_Read
 145              	.LVL21:
 146 0080 30B9     		cbnz	r0, .L17
  73:main.c        ****             if (!stopButtonPrev) {
ARM GAS  C:\Users\Admin\AppData\Local\Temp\cciUVb9z.s 			page 5


 147              		.loc 1 73 0
 148 0082 BAF1000F 		cmp	r10, #0
 149 0086 0AD1     		bne	.L3
  74:main.c        ****                 if (stopwatchMode) {
 150              		.loc 1 74 0
 151 0088 2DB9     		cbnz	r5, .L18
  75:main.c        ****                     stopwatchMode   = false;
  76:main.c        ****                     stopwatchFrozen = true;
  77:main.c        ****                 }
  78:main.c        ****                 stopButtonPrev = true;
 152              		.loc 1 78 0
 153 008a 4FF0010A 		mov	r10, #1
 154              	.LVL22:
 155 008e 06E0     		b	.L3
 156              	.LVL23:
 157              	.L17:
  79:main.c        ****             }
  80:main.c        ****         } else {
  81:main.c        ****             stopButtonPrev = false;
 158              		.loc 1 81 0
 159 0090 4FF0000A 		mov	r10, #0
 160              	.LVL24:
 161 0094 03E0     		b	.L3
 162              	.LVL25:
 163              	.L18:
  78:main.c        ****             }
 164              		.loc 1 78 0
 165 0096 4FF0010A 		mov	r10, #1
 166              	.LVL26:
  76:main.c        ****                 }
 167              		.loc 1 76 0
 168 009a D146     		mov	r9, r10
 169              	.LVL27:
  75:main.c        ****                     stopwatchFrozen = true;
 170              		.loc 1 75 0
 171 009c 0025     		movs	r5, #0
 172              	.LVL28:
 173              	.L3:
  82:main.c        ****         }
  83:main.c        ****         
  84:main.c        ****         /* --- UPDATE STOPWATCH IF RUNNING --- */
  85:main.c        ****         if (stopwatchMode) {
 174              		.loc 1 85 0
 175 009e 95B1     		cbz	r5, .L4
  86:main.c        ****             stopwatchTick += 250;
 176              		.loc 1 86 0
 177 00a0 08F1FA08 		add	r8, r8, #250
 178              	.LVL29:
 179 00a4 1FFA88F8 		uxth	r8, r8
 180              	.LVL30:
  87:main.c        ****             if (stopwatchTick >= 1000) {
 181              		.loc 1 87 0
 182 00a8 B8F57A7F 		cmp	r8, #1000
 183 00ac 0BD3     		bcc	.L4
  88:main.c        ****                 stopwatchSeconds += stopwatchTick / 1000;
 184              		.loc 1 88 0
 185 00ae 714B     		ldr	r3, .L22
ARM GAS  C:\Users\Admin\AppData\Local\Temp\cciUVb9z.s 			page 6


 186 00b0 A3FB0823 		umull	r2, r3, r3, r8
 187 00b4 9B09     		lsrs	r3, r3, #6
 188 00b6 9AB2     		uxth	r2, r3
 189 00b8 1644     		add	r6, r6, r2
 190              	.LVL31:
  89:main.c        ****                 stopwatchTick %= 1000;
 191              		.loc 1 89 0
 192 00ba 4FF47A72 		mov	r2, #1000
 193 00be 02FB1388 		mls	r8, r2, r3, r8
 194              	.LVL32:
 195 00c2 1FFA88F8 		uxth	r8, r8
 196              	.LVL33:
 197              	.L4:
  90:main.c        ****             }
  91:main.c        ****         }
  92:main.c        ****         
  93:main.c        ****         /* --- READ CURRENT RTC --- */
  94:main.c        ****         uint16_t year   = RTC_ReadYear();
 198              		.loc 1 94 0
 199 00c6 FFF7FEFF 		bl	RTC_ReadYear
 200              	.LVL34:
 201 00ca 0446     		mov	r4, r0
 202              	.LVL35:
  95:main.c        ****         uint8_t  month  = RTC_ReadMonth();
 203              		.loc 1 95 0
 204 00cc FFF7FEFF 		bl	RTC_ReadMonth
 205              	.LVL36:
 206 00d0 0746     		mov	r7, r0
 207              	.LVL37:
  96:main.c        ****         uint8_t  day    = RTC_ReadDayOfMonth();
 208              		.loc 1 96 0
 209 00d2 FFF7FEFF 		bl	RTC_ReadDayOfMonth
 210              	.LVL38:
 211 00d6 0290     		str	r0, [sp, #8]
 212              	.LVL39:
  97:main.c        ****         uint8_t  hour   = RTC_ReadHour();
 213              		.loc 1 97 0
 214 00d8 FFF7FEFF 		bl	RTC_ReadHour
 215              	.LVL40:
 216 00dc 0390     		str	r0, [sp, #12]
 217              	.LVL41:
  98:main.c        ****         uint8_t  minute = RTC_ReadMinute();
 218              		.loc 1 98 0
 219 00de FFF7FEFF 		bl	RTC_ReadMinute
 220              	.LVL42:
 221 00e2 0490     		str	r0, [sp, #16]
 222              	.LVL43:
  99:main.c        ****         uint8_t  second = RTC_ReadSecond();
 223              		.loc 1 99 0
 224 00e4 FFF7FEFF 		bl	RTC_ReadSecond
 225              	.LVL44:
 226 00e8 0590     		str	r0, [sp, #20]
 227              	.LVL45:
 228              	.LBB3:
 100:main.c        ****         
 101:main.c        ****         /* --- CHECK EACH ALARM FOR TRIGGER --- */
 102:main.c        ****         for (int i = 0; i < NUM_ALARMS; i++) {
ARM GAS  C:\Users\Admin\AppData\Local\Temp\cciUVb9z.s 			page 7


 229              		.loc 1 102 0
 230 00ea 0023     		movs	r3, #0
 231 00ec 38E0     		b	.L5
 232              	.LVL46:
 233              	.L7:
 103:main.c        ****             if (!alarmActive[i]
 234              		.loc 1 103 0
 235 00ee 12AA     		add	r2, sp, #72
 236 00f0 1A44     		add	r2, r2, r3
 237 00f2 12F8042C 		ldrb	r2, [r2, #-4]	@ zero_extendqisi2
 238 00f6 002A     		cmp	r2, #0
 239 00f8 31D1     		bne	.L6
 104:main.c        ****                 && year   == alarmDefs[i].year
 240              		.loc 1 104 0
 241 00fa 5F4A     		ldr	r2, .L22+4
 242 00fc 32F83320 		ldrh	r2, [r2, r3, lsl #3]
 243 0100 9442     		cmp	r4, r2
 244 0102 2CD1     		bne	.L6
 105:main.c        ****                 && month  == alarmDefs[i].month
 245              		.loc 1 105 0
 246 0104 5C4A     		ldr	r2, .L22+4
 247 0106 02EBC302 		add	r2, r2, r3, lsl #3
 248 010a 9278     		ldrb	r2, [r2, #2]	@ zero_extendqisi2
 249 010c 9742     		cmp	r7, r2
 250 010e 26D1     		bne	.L6
 106:main.c        ****                 && day    == alarmDefs[i].day
 251              		.loc 1 106 0
 252 0110 594A     		ldr	r2, .L22+4
 253 0112 02EBC302 		add	r2, r2, r3, lsl #3
 254 0116 D278     		ldrb	r2, [r2, #3]	@ zero_extendqisi2
 255 0118 0299     		ldr	r1, [sp, #8]
 256 011a 9142     		cmp	r1, r2
 257 011c 1FD1     		bne	.L6
 107:main.c        ****                 && hour   == alarmDefs[i].hour
 258              		.loc 1 107 0
 259 011e 564A     		ldr	r2, .L22+4
 260 0120 02EBC302 		add	r2, r2, r3, lsl #3
 261 0124 1279     		ldrb	r2, [r2, #4]	@ zero_extendqisi2
 262 0126 0399     		ldr	r1, [sp, #12]
 263 0128 9142     		cmp	r1, r2
 264 012a 18D1     		bne	.L6
 108:main.c        ****                 && minute == alarmDefs[i].minute
 265              		.loc 1 108 0
 266 012c 524A     		ldr	r2, .L22+4
 267 012e 02EBC302 		add	r2, r2, r3, lsl #3
 268 0132 5279     		ldrb	r2, [r2, #5]	@ zero_extendqisi2
 269 0134 0499     		ldr	r1, [sp, #16]
 270 0136 9142     		cmp	r1, r2
 271 0138 11D1     		bne	.L6
 109:main.c        ****                 && second == alarmDefs[i].second)
 272              		.loc 1 109 0
 273 013a 4F4A     		ldr	r2, .L22+4
 274 013c 02EBC302 		add	r2, r2, r3, lsl #3
 275 0140 9279     		ldrb	r2, [r2, #6]	@ zero_extendqisi2
 276 0142 0599     		ldr	r1, [sp, #20]
 277 0144 9142     		cmp	r1, r2
 278 0146 0AD1     		bne	.L6
ARM GAS  C:\Users\Admin\AppData\Local\Temp\cciUVb9z.s 			page 8


 110:main.c        ****             {
 111:main.c        ****                 alarmActive[i]  = true;
 279              		.loc 1 111 0
 280 0148 0121     		movs	r1, #1
 281 014a 12AA     		add	r2, sp, #72
 282 014c 1A44     		add	r2, r2, r3
 283 014e 02F8041C 		strb	r1, [r2, #-4]
 112:main.c        ****                 alarmCounter[i] = ALARM_DURATION_ITERATIONS;
 284              		.loc 1 112 0
 285 0152 1421     		movs	r1, #20
 286 0154 12AA     		add	r2, sp, #72
 287 0156 02EB8302 		add	r2, r2, r3, lsl #2
 288 015a 42F8101C 		str	r1, [r2, #-16]
 289              	.L6:
 102:main.c        ****             if (!alarmActive[i]
 290              		.loc 1 102 0 discriminator 2
 291 015e 0133     		adds	r3, r3, #1
 292              	.LVL47:
 293              	.L5:
 102:main.c        ****             if (!alarmActive[i]
 294              		.loc 1 102 0 is_stmt 0 discriminator 1
 295 0160 022B     		cmp	r3, #2
 296 0162 C4DD     		ble	.L7
 297              	.LBE3:
 113:main.c        ****                 // Buzzer_Write(1);
 114:main.c        ****             }
 115:main.c        ****         }
 116:main.c        ****         
 117:main.c        ****         /* --- DRAW LINE 1: DATE --- */
 118:main.c        ****         char line1[16];
 119:main.c        ****         snprintf(line1, sizeof(line1),
 298              		.loc 1 119 0 is_stmt 1
 299 0164 0194     		str	r4, [sp, #4]
 300 0166 0097     		str	r7, [sp]
 301 0168 029B     		ldr	r3, [sp, #8]
 302              	.LVL48:
 303 016a 444A     		ldr	r2, .L22+8
 304 016c 1021     		movs	r1, #16
 305 016e 06A8     		add	r0, sp, #24
 306 0170 FFF7FEFF 		bl	snprintf
 307              	.LVL49:
 120:main.c        ****                  "Date:%02d/%02d/%04d",
 121:main.c        ****                  day, month, year);
 122:main.c        ****         LCD_Position(0, 0);
 308              		.loc 1 122 0
 309 0174 0021     		movs	r1, #0
 310 0176 0846     		mov	r0, r1
 311 0178 FFF7FEFF 		bl	LCD_Position
 312              	.LVL50:
 123:main.c        ****         LCD_PrintString(line1);
 313              		.loc 1 123 0
 314 017c 06A8     		add	r0, sp, #24
 315 017e FFF7FEFF 		bl	LCD_PrintString
 316              	.LVL51:
 124:main.c        ****         
 125:main.c        ****         /* --- DRAW LINE 2: priority: stopwatch running → frozen → any alarm → clock --- */
 126:main.c        ****         char line2[16];
ARM GAS  C:\Users\Admin\AppData\Local\Temp\cciUVb9z.s 			page 9


 127:main.c        ****         
 128:main.c        ****         if (stopwatchMode) {
 317              		.loc 1 128 0
 318 0182 EDB1     		cbz	r5, .L8
 319              	.LBB4:
 129:main.c        ****             /* running */
 130:main.c        ****             uint8_t h = stopwatchSeconds / 3600;
 320              		.loc 1 130 0
 321 0184 3E4B     		ldr	r3, .L22+12
 322 0186 A3FB0623 		umull	r2, r3, r3, r6
 323 018a DB0A     		lsrs	r3, r3, #11
 324              	.LVL52:
 131:main.c        ****             uint8_t m = (stopwatchSeconds % 3600) / 60;
 325              		.loc 1 131 0
 326 018c 4FF46161 		mov	r1, #3600
 327 0190 01FB1361 		mls	r1, r1, r3, r6
 328 0194 3B4A     		ldr	r2, .L22+16
 329 0196 A2FB0101 		umull	r0, r1, r2, r1
 330              	.LVL53:
 132:main.c        ****             uint8_t s = stopwatchSeconds % 60;
 331              		.loc 1 132 0
 332 019a A2FB0602 		umull	r0, r2, r2, r6
 333 019e 5209     		lsrs	r2, r2, #5
 334 01a0 C2EB0212 		rsb	r2, r2, r2, lsl #4
 335 01a4 9000     		lsls	r0, r2, #2
 336 01a6 321A     		subs	r2, r6, r0
 337              	.LVL54:
 133:main.c        ****             snprintf(line2, sizeof(line2),
 338              		.loc 1 133 0
 339 01a8 D2B2     		uxtb	r2, r2
 340 01aa 0192     		str	r2, [sp, #4]
 341 01ac C1F34711 		ubfx	r1, r1, #5, #8
 342              	.LVL55:
 343 01b0 0091     		str	r1, [sp]
 344 01b2 DBB2     		uxtb	r3, r3
 345              	.LVL56:
 346 01b4 344A     		ldr	r2, .L22+20
 347              	.LVL57:
 348 01b6 1021     		movs	r1, #16
 349 01b8 0AA8     		add	r0, sp, #40
 350 01ba FFF7FEFF 		bl	snprintf
 351              	.LVL58:
 352              	.LBE4:
 353 01be 4EE0     		b	.L9
 354              	.LVL59:
 355              	.L8:
 134:main.c        ****                      "Stop:%02d:%02d:%02d", h, m, s);
 135:main.c        ****         }
 136:main.c        ****         else if (stopwatchFrozen) {
 356              		.loc 1 136 0
 357 01c0 B9F1000F 		cmp	r9, #0
 358 01c4 24D0     		beq	.L19
 359              	.LBB5:
 137:main.c        ****             /* frozen */
 138:main.c        ****             uint8_t h = stopwatchSeconds / 3600;
 360              		.loc 1 138 0
 361 01c6 2E4B     		ldr	r3, .L22+12
ARM GAS  C:\Users\Admin\AppData\Local\Temp\cciUVb9z.s 			page 10


 362 01c8 A3FB0623 		umull	r2, r3, r3, r6
 363 01cc DB0A     		lsrs	r3, r3, #11
 364              	.LVL60:
 139:main.c        ****             uint8_t m = (stopwatchSeconds % 3600) / 60;
 365              		.loc 1 139 0
 366 01ce 4FF46161 		mov	r1, #3600
 367 01d2 01FB1361 		mls	r1, r1, r3, r6
 368 01d6 2B4A     		ldr	r2, .L22+16
 369 01d8 A2FB0101 		umull	r0, r1, r2, r1
 370              	.LVL61:
 140:main.c        ****             uint8_t s = stopwatchSeconds % 60;
 371              		.loc 1 140 0
 372 01dc A2FB0602 		umull	r0, r2, r2, r6
 373 01e0 5209     		lsrs	r2, r2, #5
 374 01e2 C2EB0212 		rsb	r2, r2, r2, lsl #4
 375 01e6 9000     		lsls	r0, r2, #2
 376 01e8 321A     		subs	r2, r6, r0
 377              	.LVL62:
 141:main.c        ****             snprintf(line2, sizeof(line2),
 378              		.loc 1 141 0
 379 01ea D2B2     		uxtb	r2, r2
 380 01ec 0192     		str	r2, [sp, #4]
 381 01ee C1F34711 		ubfx	r1, r1, #5, #8
 382              	.LVL63:
 383 01f2 0091     		str	r1, [sp]
 384 01f4 DBB2     		uxtb	r3, r3
 385              	.LVL64:
 386 01f6 254A     		ldr	r2, .L22+24
 387              	.LVL65:
 388 01f8 1021     		movs	r1, #16
 389 01fa 0AA8     		add	r0, sp, #40
 390 01fc FFF7FEFF 		bl	snprintf
 391              	.LVL66:
 392              	.LBE5:
 393 0200 2DE0     		b	.L9
 394              	.LVL67:
 395              	.L12:
 396              	.LBB6:
 397              	.LBB7:
 142:main.c        ****                      "Hold:%02d:%02d:%02d", h, m, s);
 143:main.c        ****         }
 144:main.c        ****         else {
 145:main.c        ****             /* check if any alarm is active right now */
 146:main.c        ****             int activeIdx = -1;
 147:main.c        ****             for (int i = 0; i < NUM_ALARMS; i++) {
 148:main.c        ****                 if (alarmActive[i]) {
 398              		.loc 1 148 0
 399 0202 12AB     		add	r3, sp, #72
 400 0204 2344     		add	r3, r3, r4
 401 0206 13F8043C 		ldrb	r3, [r3, #-4]	@ zero_extendqisi2
 402 020a 33B9     		cbnz	r3, .L11
 147:main.c        ****                 if (alarmActive[i]) {
 403              		.loc 1 147 0 discriminator 2
 404 020c 0134     		adds	r4, r4, #1
 405              	.LVL68:
 406 020e 00E0     		b	.L10
 407              	.LVL69:
ARM GAS  C:\Users\Admin\AppData\Local\Temp\cciUVb9z.s 			page 11


 408              	.L19:
 409              	.LBE7:
 410              	.LBE6:
 411 0210 0024     		movs	r4, #0
 412              	.LVL70:
 413              	.L10:
 414              	.LBB9:
 415              	.LBB8:
 147:main.c        ****                 if (alarmActive[i]) {
 416              		.loc 1 147 0 is_stmt 0 discriminator 1
 417 0212 022C     		cmp	r4, #2
 418 0214 F5DD     		ble	.L12
 419              	.LBE8:
 146:main.c        ****             for (int i = 0; i < NUM_ALARMS; i++) {
 420              		.loc 1 146 0 is_stmt 1
 421 0216 4FF0FF34 		mov	r4, #-1
 422              	.LVL71:
 423              	.L11:
 149:main.c        ****                     activeIdx = i;
 150:main.c        ****                     break;
 151:main.c        ****                 }
 152:main.c        ****             }
 153:main.c        ****             if (activeIdx >= 0) {
 424              		.loc 1 153 0
 425 021a 002C     		cmp	r4, #0
 426 021c 15DB     		blt	.L13
 154:main.c        ****                 /* show ALARM for the first active one */
 155:main.c        ****                 snprintf(line2, sizeof(line2),
 427              		.loc 1 155 0
 428 021e 631C     		adds	r3, r4, #1
 429 0220 1B4A     		ldr	r2, .L22+28
 430 0222 1021     		movs	r1, #16
 431 0224 0AA8     		add	r0, sp, #40
 432 0226 FFF7FEFF 		bl	snprintf
 433              	.LVL72:
 156:main.c        ****                          "ALARM %d!!!", activeIdx+1);
 157:main.c        ****                 
 158:main.c        ****                 /* countdown and clear when done */
 159:main.c        ****                 if (--alarmCounter[activeIdx] <= 0) {
 434              		.loc 1 159 0
 435 022a 12AB     		add	r3, sp, #72
 436 022c 03EB8402 		add	r2, r3, r4, lsl #2
 437 0230 52F8103C 		ldr	r3, [r2, #-16]
 438 0234 013B     		subs	r3, r3, #1
 439 0236 42F8103C 		str	r3, [r2, #-16]
 440 023a 002B     		cmp	r3, #0
 441 023c 0FDC     		bgt	.L9
 160:main.c        ****                     alarmActive[activeIdx] = false;
 442              		.loc 1 160 0
 443 023e 12AB     		add	r3, sp, #72
 444 0240 1C44     		add	r4, r4, r3
 445              	.LVL73:
 446 0242 0023     		movs	r3, #0
 447 0244 04F8043C 		strb	r3, [r4, #-4]
 448 0248 09E0     		b	.L9
 449              	.LVL74:
 450              	.L13:
ARM GAS  C:\Users\Admin\AppData\Local\Temp\cciUVb9z.s 			page 12


 161:main.c        ****                     // Buzzer_Write(0);
 162:main.c        ****                 }
 163:main.c        ****             }
 164:main.c        ****             else {
 165:main.c        ****                 /* normal clock display */
 166:main.c        ****                 snprintf(line2, sizeof(line2),
 451              		.loc 1 166 0
 452 024a 059B     		ldr	r3, [sp, #20]
 453 024c 0193     		str	r3, [sp, #4]
 454 024e 049B     		ldr	r3, [sp, #16]
 455 0250 0093     		str	r3, [sp]
 456 0252 039B     		ldr	r3, [sp, #12]
 457 0254 0F4A     		ldr	r2, .L22+32
 458 0256 1021     		movs	r1, #16
 459 0258 0AA8     		add	r0, sp, #40
 460 025a FFF7FEFF 		bl	snprintf
 461              	.LVL75:
 462              	.L9:
 463              	.LBE9:
 167:main.c        ****                          "Time:%02d:%02d:%02d", hour, minute, second);
 168:main.c        ****             }
 169:main.c        ****         }
 170:main.c        ****         
 171:main.c        ****         LCD_Position(1, 0);
 464              		.loc 1 171 0 discriminator 1
 465 025e 0021     		movs	r1, #0
 466 0260 0120     		movs	r0, #1
 467 0262 FFF7FEFF 		bl	LCD_Position
 468              	.LVL76:
 172:main.c        ****         LCD_PrintString(line2);
 469              		.loc 1 172 0 discriminator 1
 470 0266 0AA8     		add	r0, sp, #40
 471 0268 FFF7FEFF 		bl	LCD_PrintString
 472              	.LVL77:
 173:main.c        ****         
 174:main.c        ****         CyDelay(250);
 473              		.loc 1 174 0 discriminator 1
 474 026c FA20     		movs	r0, #250
 475 026e FFF7FEFF 		bl	CyDelay
 476              	.LVL78:
 477              	.LBE2:
 175:main.c        ****     }
 478              		.loc 1 175 0 discriminator 1
 479 0272 EDE6     		b	.L14
 480              	.L23:
 481              		.align	2
 482              	.L22:
 483 0274 D34D6210 		.word	274877907
 484 0278 00000000 		.word	.LANCHOR0
 485 027c 00000000 		.word	.LC0
 486 0280 C5B3A291 		.word	-1851608123
 487 0284 89888888 		.word	-2004318071
 488 0288 14000000 		.word	.LC1
 489 028c 28000000 		.word	.LC2
 490 0290 3C000000 		.word	.LC3
 491 0294 48000000 		.word	.LC4
 492              		.cfi_endproc
ARM GAS  C:\Users\Admin\AppData\Local\Temp\cciUVb9z.s 			page 13


 493              	.LFE64:
 494              		.size	main, .-main
 495              		.section	.rodata
 496              		.align	2
 497              		.set	.LANCHOR0,. + 0
 498              		.type	alarmDefs, %object
 499              		.size	alarmDefs, 24
 500              	alarmDefs:
 501 0000 E907     		.short	2025
 502 0002 04       		.byte	4
 503 0003 0E       		.byte	14
 504 0004 0E       		.byte	14
 505 0005 1F       		.byte	31
 506 0006 00       		.byte	0
 507 0007 00       		.space	1
 508 0008 E907     		.short	2025
 509 000a 04       		.byte	4
 510 000b 0E       		.byte	14
 511 000c 0E       		.byte	14
 512 000d 20       		.byte	32
 513 000e 00       		.byte	0
 514 000f 00       		.space	1
 515 0010 E907     		.short	2025
 516 0012 04       		.byte	4
 517 0013 0E       		.byte	14
 518 0014 0E       		.byte	14
 519 0015 21       		.byte	33
 520 0016 00       		.byte	0
 521 0017 00       		.space	1
 522              		.section	.rodata.str1.4,"aMS",%progbits,1
 523              		.align	2
 524              	.LC0:
 525 0000 44617465 		.ascii	"Date:%02d/%02d/%04d\000"
 525      3A253032 
 525      642F2530 
 525      32642F25 
 525      30346400 
 526              	.LC1:
 527 0014 53746F70 		.ascii	"Stop:%02d:%02d:%02d\000"
 527      3A253032 
 527      643A2530 
 527      32643A25 
 527      30326400 
 528              	.LC2:
 529 0028 486F6C64 		.ascii	"Hold:%02d:%02d:%02d\000"
 529      3A253032 
 529      643A2530 
 529      32643A25 
 529      30326400 
 530              	.LC3:
 531 003c 414C4152 		.ascii	"ALARM %d!!!\000"
 531      4D202564 
 531      21212100 
 532              	.LC4:
 533 0048 54696D65 		.ascii	"Time:%02d:%02d:%02d\000"
 533      3A253032 
 533      643A2530 
ARM GAS  C:\Users\Admin\AppData\Local\Temp\cciUVb9z.s 			page 14


 533      32643A25 
 533      30326400 
 534              		.text
 535              	.Letext0:
 536              		.file 2 "c:\\program files (x86)\\cypress\\psoc creator\\4.4\\psoc creator\\import\\gnu\\arm\\5.4.
 537              		.file 3 "c:\\program files (x86)\\cypress\\psoc creator\\4.4\\psoc creator\\import\\gnu\\arm\\5.4.
 538              		.file 4 "c:\\program files (x86)\\cypress\\psoc creator\\4.4\\psoc creator\\import\\gnu\\arm\\5.4.
 539              		.file 5 "Generated_Source\\PSoC5/Pin.h"
 540              		.file 6 "Generated_Source\\PSoC5/Pin2.h"
 541              		.file 7 "Generated_Source\\PSoC5/RTC.h"
 542              		.file 8 "Generated_Source\\PSoC5/LCD.h"
 543              		.file 9 "Generated_Source\\PSoC5/CyLib.h"
 544              		.file 10 "Generated_Source\\PSoC5/core_cm3.h"